target datalayout = "e-m:e-p270:32:32-p271:32:32-p272:64:64-i64:64-i128:128-f80:128-n8:16:32:64-S128"
target triple = "x86_64-pc-linux-gnu"

%struct.Abc_Ntk_t_ = type { i32, i32, ptr, ptr, ptr, ptr, ptr, ptr, ptr, ptr, ptr, ptr, ptr, [11 x i32], i32, i32, i32, i32, ptr, i32, ptr, ptr, i32, i32, i32, double, i32, %struct.Vec_Int_t_, ptr, ptr, ptr, ptr, ptr, float, i32, ptr, ptr, ptr, ptr, ptr, ptr, ptr, ptr, ptr, ptr, ptr, ptr, ptr, ptr, ptr, ptr, ptr, ptr, ptr, ptr, ptr, ptr }
%struct.Vec_Int_t_ = type { i32, i32, ptr }
%struct.Abc_Obj_t_ = type { ptr, ptr, i32, i32, %struct.Vec_Int_t_, %struct.Vec_Int_t_, %union.anon, %union.anon.0 }
%union.anon = type { ptr }
%union.anon.0 = type { ptr }
%struct.Vec_Ptr_t_ = type { i32, i32, ptr }

; Function Attrs: inlinehint nounwind uwtable
define internal ptr @Abc_ObjFanin0(ptr noundef %0) #2 {
  %2 = alloca ptr, align 8
  store ptr %0, ptr %2, align 8, !tbaa !26
  %3 = load ptr, ptr %2, align 8, !tbaa !26
  %4 = getelementptr inbounds nuw %struct.Abc_Obj_t_, ptr %3, i32 0, i32 0
  %5 = load ptr, ptr %4, align 8, !tbaa !79
  %6 = getelementptr inbounds nuw %struct.Abc_Ntk_t_, ptr %5, i32 0, i32 5
  %7 = load ptr, ptr %6, align 8, !tbaa !10
  %8 = getelementptr inbounds nuw %struct.Vec_Ptr_t_, ptr %7, i32 0, i32 2
  %9 = load ptr, ptr %8, align 8, !tbaa !73
  %10 = load ptr, ptr %2, align 8, !tbaa !26
  %11 = getelementptr inbounds nuw %struct.Abc_Obj_t_, ptr %10, i32 0, i32 4
  %12 = getelementptr inbounds nuw %struct.Vec_Int_t_, ptr %11, i32 0, i32 2
  %13 = load ptr, ptr %12, align 8, !tbaa !90
  %14 = getelementptr inbounds i32, ptr %13, i64 0
  %15 = load i32, ptr %14, align 4, !tbaa !8
  %16 = sext i32 %15 to i64
  %17 = getelementptr inbounds ptr, ptr %9, i64 %16
  %18 = load ptr, ptr %17, align 8, !tbaa !78
  ret ptr %18
}

; Function Attrs: inlinehint nounwind uwtable
define internal i32 @Abc_ObjIsLatch(ptr noundef %0) #2 {
  %2 = alloca ptr, align 8
  store ptr %0, ptr %2, align 8, !tbaa !26
  %3 = load ptr, ptr %2, align 8, !tbaa !26
  %4 = getelementptr inbounds nuw %struct.Abc_Obj_t_, ptr %3, i32 0, i32 3
  %5 = load i32, ptr %4, align 4
  %6 = and i32 %5, 15
  %7 = icmp eq i32 %6, 8
  %8 = zext i1 %7 to i32
  ret i32 %8
}

; Function Attrs: inlinehint nounwind uwtable
define internal i32 @Abc_ObjIsNode(ptr noundef %0) #2 {
  %2 = alloca ptr, align 8
  store ptr %0, ptr %2, align 8, !tbaa !26
  %3 = load ptr, ptr %2, align 8, !tbaa !26
  %4 = getelementptr inbounds nuw %struct.Abc_Obj_t_, ptr %3, i32 0, i32 3
  %5 = load i32, ptr %4, align 4
  %6 = and i32 %5, 15
  %7 = icmp eq i32 %6, 7
  %8 = zext i1 %7 to i32
  ret i32 %8
}

; Function Attrs: inlinehint nounwind uwtable
define internal i32 @Abc_ObjFaninNum(ptr noundef %0) #2 {
  %2 = alloca ptr, align 8
  store ptr %0, ptr %2, align 8, !tbaa !26
  %3 = load ptr, ptr %2, align 8, !tbaa !26
  %4 = getelementptr inbounds nuw %struct.Abc_Obj_t_, ptr %3, i32 0, i32 4
  %5 = getelementptr inbounds nuw %struct.Vec_Int_t_, ptr %4, i32 0, i32 1
  %6 = load i32, ptr %5, align 4, !tbaa !89
  ret i32 %6
}

; Function Attrs: nounwind uwtable
define i32 @Abc_NtkCheckConstant_rec(ptr noundef %0) #0 {
  %2 = alloca i32, align 4
  %3 = alloca ptr, align 8
  %4 = alloca i32, align 4
  %5 = alloca i32, align 4
  store ptr %0, ptr %3, align 8, !tbaa !26
  %6 = load ptr, ptr %3, align 8, !tbaa !26
  %7 = call i32 @Abc_ObjFaninNum(ptr noundef %6)
  %8 = icmp eq i32 %7, 0
  br i1 %8, label %9, label %25

9:                                                ; preds = %1
  %10 = load ptr, ptr %3, align 8, !tbaa !26
  %11 = call i32 @Abc_ObjIsNode(ptr noundef %10)
  %12 = icmp ne i32 %11, 0
  br i1 %12, label %14, label %13

13:                                               ; preds = %9
  store i32 -1, ptr %2, align 4
  br label %65

14:                                               ; preds = %9
  %15 = load ptr, ptr %3, align 8, !tbaa !26
  %16 = call i32 @Abc_NodeIsConst0(ptr noundef %15)
  %17 = icmp ne i32 %16, 0
  br i1 %17, label %18, label %19

18:                                               ; preds = %14
  store i32 0, ptr %2, align 4
  br label %65

19:                                               ; preds = %14
  %20 = load ptr, ptr %3, align 8, !tbaa !26
  %21 = call i32 @Abc_NodeIsConst1(ptr noundef %20)
  %22 = icmp ne i32 %21, 0
  br i1 %22, label %23, label %24

23:                                               ; preds = %19
  store i32 1, ptr %2, align 4
  br label %65

24:                                               ; preds = %19
  store i32 -1, ptr %2, align 4
  br label %65

25:                                               ; preds = %1
  %26 = load ptr, ptr %3, align 8, !tbaa !26
  %27 = call i32 @Abc_ObjIsLatch(ptr noundef %26)
  %28 = icmp ne i32 %27, 0
  br i1 %28, label %33, label %29

29:                                               ; preds = %25
  %30 = load ptr, ptr %3, align 8, !tbaa !26
  %31 = call i32 @Abc_ObjFaninNum(ptr noundef %30)
  %32 = icmp sgt i32 %31, 1
  br i1 %32, label %33, label %34

33:                                               ; preds = %29, %25
  store i32 -1, ptr %2, align 4
  br label %65

34:                                               ; preds = %29
  %35 = load ptr, ptr %3, align 8, !tbaa !26
  %36 = call i32 @Abc_ObjIsNode(ptr noundef %35)
  %37 = icmp ne i32 %36, 0
  br i1 %37, label %38, label %42

38:                                               ; preds = %34
  %39 = load ptr, ptr %3, align 8, !tbaa !26
  %40 = call i32 @Abc_NodeIsBuf(ptr noundef %39)
  %41 = icmp ne i32 %40, 0
  br i1 %41, label %42, label %46

42:                                               ; preds = %38, %34
  %43 = load ptr, ptr %3, align 8, !tbaa !26
  %44 = call ptr @Abc_ObjFanin0(ptr noundef %43)
  %45 = call i32 @Abc_NtkCheckConstant_rec(ptr noundef %44)
  store i32 %45, ptr %2, align 4
  br label %65

46:                                               ; preds = %38
  %47 = load ptr, ptr %3, align 8, !tbaa !26
  %48 = call i32 @Abc_NodeIsInv(ptr noundef %47)
  %49 = icmp ne i32 %48, 0
  br i1 %49, label %50, label %64

50:                                               ; preds = %46
  call void @llvm.lifetime.start.p0(i64 4, ptr %4) #7
  %51 = load ptr, ptr %3, align 8, !tbaa !26
  %52 = call ptr @Abc_ObjFanin0(ptr noundef %51)
  %53 = call i32 @Abc_NtkCheckConstant_rec(ptr noundef %52)
  store i32 %53, ptr %4, align 4, !tbaa !8
  %54 = load i32, ptr %4, align 4, !tbaa !8
  %55 = icmp eq i32 %54, 0
  br i1 %55, label %56, label %57

56:                                               ; preds = %50
  store i32 1, ptr %2, align 4
  store i32 1, ptr %5, align 4
  br label %63

57:                                               ; preds = %50
  %58 = load i32, ptr %4, align 4, !tbaa !8
  %59 = icmp eq i32 %58, 1
  br i1 %59, label %60, label %61

60:                                               ; preds = %57
  store i32 0, ptr %2, align 4
  store i32 1, ptr %5, align 4
  br label %63

61:                                               ; preds = %57
  %62 = load i32, ptr %4, align 4, !tbaa !8
  store i32 %62, ptr %2, align 4
  store i32 1, ptr %5, align 4
  br label %63

63:                                               ; preds = %61, %60, %56
  call void @llvm.lifetime.end.p0(i64 4, ptr %4) #7
  br label %65

64:                                               ; preds = %46
  store i32 -1, ptr %2, align 4
  br label %65

65:                                               ; preds = %64, %63, %42, %33, %24, %23, %18, %13
  %66 = load i32, ptr %2, align 4
  ret i32 %66
}