; Function Attrs: nounwind uwtable
define range(i32 -1, 2) i32 @Abc_NtkCheckConstant_rec(ptr noundef %0) local_unnamed_addr #0 {
  %2 = getelementptr i8, ptr %0, i64 28
  %.val2332 = load i32, ptr %2, align 4, !tbaa !42
  %3 = icmp eq i32 %.val2332, 0
  br i1 %3, label %tailrecurse._crit_edge, label %.lr.ph

tailrecurse._crit_edge:                           ; preds = %tailrecurse, %1
  %.tr.lcssa = phi ptr [ %0, %1 ], [ %22, %tailrecurse ]
  %4 = getelementptr i8, ptr %.tr.lcssa, i64 20
  %.val21 = load i32, ptr %4, align 4
  %5 = and i32 %.val21, 15
  %.not29 = icmp eq i32 %5, 7
  br i1 %.not29, label %6, label %common.ret

6:                                                ; preds = %tailrecurse._crit_edge
  %7 = tail call i32 @Abc_NodeIsConst0(ptr noundef nonnull %.tr.lcssa) #11
  %.not19 = icmp eq i32 %7, 0
  br i1 %.not19, label %8, label %common.ret

8:                                                ; preds = %6
  %9 = tail call i32 @Abc_NodeIsConst1(ptr noundef nonnull %.tr.lcssa) #11
  %.not20 = icmp eq i32 %9, 0
  %. = select i1 %.not20, i32 -1, i32 1
  br label %common.ret

.lr.ph:                                           ; preds = %1, %tailrecurse
  %.val2334 = phi i32 [ %.val23, %tailrecurse ], [ %.val2332, %1 ]
  %.tr33 = phi ptr [ %22, %tailrecurse ], [ %0, %1 ]
  %10 = getelementptr i8, ptr %.tr33, i64 20
  %.val28 = load i32, ptr %10, align 4
  %11 = and i32 %.val28, 15
  %12 = icmp eq i32 %11, 8
  %13 = icmp sgt i32 %.val2334, 1
  %or.cond = or i1 %13, %12
  br i1 %or.cond, label %common.ret, label %14

14:                                               ; preds = %.lr.ph
  %.not = icmp eq i32 %11, 7
  br i1 %.not, label %15, label %tailrecurse

15:                                               ; preds = %14
  %16 = tail call i32 @Abc_NodeIsBuf(ptr noundef nonnull %.tr33) #11
  %.not16 = icmp eq i32 %16, 0
  br i1 %.not16, label %25, label %tailrecurse

tailrecurse:                                      ; preds = %15, %14
  %.val26 = load ptr, ptr %.tr33, align 8, !tbaa !73
  %17 = getelementptr i8, ptr %.tr33, i64 32
  %.val27 = load ptr, ptr %17, align 8, !tbaa !74
  %18 = getelementptr i8, ptr %.val26, i64 32
  %.val26.val = load ptr, ptr %18, align 8, !tbaa !25
  %.val27.val = load i32, ptr %.val27, align 4, !tbaa !54
  %19 = getelementptr i8, ptr %.val26.val, i64 8
  %.val26.val.val = load ptr, ptr %19, align 8, !tbaa !28
  %20 = sext i32 %.val27.val to i64
  %21 = getelementptr inbounds ptr, ptr %.val26.val.val, i64 %20
  %22 = load ptr, ptr %21, align 8, !tbaa !29
  %23 = getelementptr i8, ptr %22, i64 28
  %.val23 = load i32, ptr %23, align 4, !tbaa !42
  %24 = icmp eq i32 %.val23, 0
  br i1 %24, label %tailrecurse._crit_edge, label %.lr.ph

25:                                               ; preds = %15
  %26 = tail call i32 @Abc_NodeIsInv(ptr noundef nonnull %.tr33) #11
  %.not17 = icmp eq i32 %26, 0
  br i1 %.not17, label %common.ret, label %27

common.ret:                                       ; preds = %tailrecurse._crit_edge, %6, %8, %25, %.lr.ph, %27
  %common.ret.op = phi i32 [ %switch.select40, %27 ], [ -1, %tailrecurse._crit_edge ], [ 0, %6 ], [ %., %8 ], [ -1, %25 ], [ -1, %.lr.ph ]
  ret i32 %common.ret.op

27:                                               ; preds = %25
  %.val24 = load ptr, ptr %.tr33, align 8, !tbaa !73
  %28 = getelementptr i8, ptr %.tr33, i64 32
  %.val25 = load ptr, ptr %28, align 8, !tbaa !74
  %29 = getelementptr i8, ptr %.val24, i64 32
  %.val24.val = load ptr, ptr %29, align 8, !tbaa !25
  %.val25.val = load i32, ptr %.val25, align 4, !tbaa !54
  %30 = getelementptr i8, ptr %.val24.val, i64 8
  %.val24.val.val = load ptr, ptr %30, align 8, !tbaa !28
  %31 = sext i32 %.val25.val to i64
  %32 = getelementptr inbounds ptr, ptr %.val24.val.val, i64 %31
  %33 = load ptr, ptr %32, align 8, !tbaa !29
  %34 = tail call i32 @Abc_NtkCheckConstant_rec(ptr noundef %33)
  %switch.selectcmp = icmp ne i32 %34, 1
  %switch.select = sext i1 %switch.selectcmp to i32
  %switch.selectcmp39 = icmp eq i32 %34, 0
  %switch.select40 = select i1 %switch.selectcmp39, i32 1, i32 %switch.select
  br label %common.ret
}